; Function Attrs: nounwind sspstrong uwtable
define internal noundef i64 @strscan_clear(i64 noundef returned %0) #0 {
  tail call void (ptr, ...) @rb_warning(ptr noundef nonnull @.str.67) #12
  %2 = tail call ptr @rb_check_typeddata(i64 noundef %0, ptr noundef nonnull @strscanner_type) #12
  %3 = getelementptr inbounds nuw i8, ptr %2, i64 8
  %4 = load i64, ptr %3, align 8, !tbaa !23
  %5 = icmp eq i64 %4, 4
  br i1 %5, label %6, label %strscan_terminate.exit

6:                                                ; preds = %1
  %7 = load i64, ptr @rb_eArgError, align 8, !tbaa !10
  tail call void (i64, ptr, ...) @rb_raise(i64 noundef %7, ptr noundef nonnull @.str.66) #14
  unreachable

strscan_terminate.exit:                           ; preds = %1
  %8 = inttoptr i64 %4 to ptr
  %9 = getelementptr inbounds nuw i8, ptr %8, i64 16
  %10 = load i64, ptr %9, align 8, !tbaa !32
  %11 = getelementptr inbounds nuw i8, ptr %2, i64 24
  store i64 %10, ptr %11, align 8, !tbaa !29
  %12 = load i64, ptr %2, align 8, !tbaa !18
  %13 = and i64 %12, -2
  store i64 %13, ptr %2, align 8, !tbaa !18
  ret i64 %0
}